target datalayout = "e-m:e-p270:32:32-p271:32:32-p272:64:64-i64:64-i128:128-f80:128-n8:16:32:64-S128"
target triple = "x86_64-pc-linux-gnu"

%"class.cvc5::internal::FatalStream" = type { i8 }

@.str = private unnamed_addr constant [5 x i8] c"none\00", align 1
@.str.1 = private unnamed_addr constant [6 x i8] c"break\00", align 1
@.str.2 = private unnamed_addr constant [11 x i8] c"check_init\00", align 1
@.str.3 = private unnamed_addr constant [16 x i8] c"check_const_eqc\00", align 1
@.str.4 = private unnamed_addr constant [16 x i8] c"check_extf_eval\00", align 1
@.str.5 = private unnamed_addr constant [13 x i8] c"check_cycles\00", align 1
@.str.6 = private unnamed_addr constant [17 x i8] c"check_flat_forms\00", align 1
@.str.7 = private unnamed_addr constant [27 x i8] c"check_normal_forms_eq_prop\00", align 1
@.str.8 = private unnamed_addr constant [22 x i8] c"check_normal_forms_eq\00", align 1
@.str.9 = private unnamed_addr constant [23 x i8] c"check_normal_forms_deq\00", align 1
@.str.10 = private unnamed_addr constant [12 x i8] c"check_codes\00", align 1
@.str.11 = private unnamed_addr constant [17 x i8] c"check_length_eqc\00", align 1
@.str.12 = private unnamed_addr constant [24 x i8] c"check_register_terms_nf\00", align 1
@.str.13 = private unnamed_addr constant [27 x i8] c"check_extf_reduction_eager\00", align 1
@.str.14 = private unnamed_addr constant [21 x i8] c"check_extf_reduction\00", align 1
@.str.15 = private unnamed_addr constant [23 x i8] c"check_membership_eager\00", align 1
@.str.16 = private unnamed_addr constant [17 x i8] c"check_membership\00", align 1
@.str.17 = private unnamed_addr constant [18 x i8] c"check_cardinality\00", align 1
@.str.18 = private unnamed_addr constant [36 x i8] c"check_sequences_update_concat_terms\00", align 1
@.str.19 = private unnamed_addr constant [22 x i8] c"check_sequences_array\00", align 1
@.str.20 = private unnamed_addr constant [28 x i8] c"check_sequences_array_eager\00", align 1
@.str.21 = private unnamed_addr constant [2 x i8] c"?\00", align 1
@__PRETTY_FUNCTION__._ZN4cvc58internal6theory7stringslsERSoNS2_9InferStepE = private unnamed_addr constant [85 x i8] c"std::ostream &cvc5::internal::theory::strings::operator<<(std::ostream &, InferStep)\00", align 1
@.str.22 = private unnamed_addr constant [119 x i8] c"generated/home/dtcxzyw/WorkSpace/Projects/compilers/llvm-opt-benchmark/bench/cvc5/cvc5/src/theory/strings/strategy.cpp\00", align 1
@.str.23 = private unnamed_addr constant [26 x i8] c"Unreachable code reached \00", align 1

; Function Attrs: mustprogress uwtable
define hidden noundef nonnull align 8 dereferenceable(8) ptr @_ZN4cvc58internal6theory7stringslsERSoNS2_9InferStepE(ptr noundef nonnull align 8 dereferenceable(8) %0, i32 noundef %1) #4 personality ptr @__gxx_personality_v0 {
  %3 = alloca ptr, align 8
  %4 = alloca i32, align 4
  %5 = alloca %"class.cvc5::internal::FatalStream", align 1
  %6 = alloca ptr, align 8
  %7 = alloca i32, align 4
  store ptr %0, ptr %3, align 8, !tbaa !3
  store i32 %1, ptr %4, align 4, !tbaa !8
  %8 = load i32, ptr %4, align 4, !tbaa !8
  switch i32 %8, label %75 [
    i32 0, label %9
    i32 1, label %12
    i32 2, label %15
    i32 3, label %18
    i32 4, label %21
    i32 5, label %24
    i32 6, label %27
    i32 7, label %30
    i32 8, label %33
    i32 9, label %36
    i32 10, label %39
    i32 11, label %42
    i32 12, label %45
    i32 13, label %48
    i32 14, label %51
    i32 15, label %54
    i32 16, label %57
    i32 17, label %60
    i32 18, label %63
    i32 19, label %66
    i32 20, label %69
    i32 21, label %72
  ]

9:                                                ; preds = %2
  %10 = load ptr, ptr %3, align 8, !tbaa !3
  %11 = call noundef nonnull align 8 dereferenceable(8) ptr @_ZStlsISt11char_traitsIcEERSt13basic_ostreamIcT_ES5_PKc(ptr noundef nonnull align 8 dereferenceable(8) %10, ptr noundef @.str)
  br label %85

12:                                               ; preds = %2
  %13 = load ptr, ptr %3, align 8, !tbaa !3
  %14 = call noundef nonnull align 8 dereferenceable(8) ptr @_ZStlsISt11char_traitsIcEERSt13basic_ostreamIcT_ES5_PKc(ptr noundef nonnull align 8 dereferenceable(8) %13, ptr noundef @.str.1)
  br label %85

15:                                               ; preds = %2
  %16 = load ptr, ptr %3, align 8, !tbaa !3
  %17 = call noundef nonnull align 8 dereferenceable(8) ptr @_ZStlsISt11char_traitsIcEERSt13basic_ostreamIcT_ES5_PKc(ptr noundef nonnull align 8 dereferenceable(8) %16, ptr noundef @.str.2)
  br label %85

18:                                               ; preds = %2
  %19 = load ptr, ptr %3, align 8, !tbaa !3
  %20 = call noundef nonnull align 8 dereferenceable(8) ptr @_ZStlsISt11char_traitsIcEERSt13basic_ostreamIcT_ES5_PKc(ptr noundef nonnull align 8 dereferenceable(8) %19, ptr noundef @.str.3)
  br label %85

21:                                               ; preds = %2
  %22 = load ptr, ptr %3, align 8, !tbaa !3
  %23 = call noundef nonnull align 8 dereferenceable(8) ptr @_ZStlsISt11char_traitsIcEERSt13basic_ostreamIcT_ES5_PKc(ptr noundef nonnull align 8 dereferenceable(8) %22, ptr noundef @.str.4)
  br label %85

24:                                               ; preds = %2
  %25 = load ptr, ptr %3, align 8, !tbaa !3
  %26 = call noundef nonnull align 8 dereferenceable(8) ptr @_ZStlsISt11char_traitsIcEERSt13basic_ostreamIcT_ES5_PKc(ptr noundef nonnull align 8 dereferenceable(8) %25, ptr noundef @.str.5)
  br label %85

27:                                               ; preds = %2
  %28 = load ptr, ptr %3, align 8, !tbaa !3
  %29 = call noundef nonnull align 8 dereferenceable(8) ptr @_ZStlsISt11char_traitsIcEERSt13basic_ostreamIcT_ES5_PKc(ptr noundef nonnull align 8 dereferenceable(8) %28, ptr noundef @.str.6)
  br label %85

30:                                               ; preds = %2
  %31 = load ptr, ptr %3, align 8, !tbaa !3
  %32 = call noundef nonnull align 8 dereferenceable(8) ptr @_ZStlsISt11char_traitsIcEERSt13basic_ostreamIcT_ES5_PKc(ptr noundef nonnull align 8 dereferenceable(8) %31, ptr noundef @.str.7)
  br label %85

33:                                               ; preds = %2
  %34 = load ptr, ptr %3, align 8, !tbaa !3
  %35 = call noundef nonnull align 8 dereferenceable(8) ptr @_ZStlsISt11char_traitsIcEERSt13basic_ostreamIcT_ES5_PKc(ptr noundef nonnull align 8 dereferenceable(8) %34, ptr noundef @.str.8)
  br label %85

36:                                               ; preds = %2
  %37 = load ptr, ptr %3, align 8, !tbaa !3
  %38 = call noundef nonnull align 8 dereferenceable(8) ptr @_ZStlsISt11char_traitsIcEERSt13basic_ostreamIcT_ES5_PKc(ptr noundef nonnull align 8 dereferenceable(8) %37, ptr noundef @.str.9)
  br label %85

39:                                               ; preds = %2
  %40 = load ptr, ptr %3, align 8, !tbaa !3
  %41 = call noundef nonnull align 8 dereferenceable(8) ptr @_ZStlsISt11char_traitsIcEERSt13basic_ostreamIcT_ES5_PKc(ptr noundef nonnull align 8 dereferenceable(8) %40, ptr noundef @.str.10)
  br label %85

42:                                               ; preds = %2
  %43 = load ptr, ptr %3, align 8, !tbaa !3
  %44 = call noundef nonnull align 8 dereferenceable(8) ptr @_ZStlsISt11char_traitsIcEERSt13basic_ostreamIcT_ES5_PKc(ptr noundef nonnull align 8 dereferenceable(8) %43, ptr noundef @.str.11)
  br label %85

45:                                               ; preds = %2
  %46 = load ptr, ptr %3, align 8, !tbaa !3
  %47 = call noundef nonnull align 8 dereferenceable(8) ptr @_ZStlsISt11char_traitsIcEERSt13basic_ostreamIcT_ES5_PKc(ptr noundef nonnull align 8 dereferenceable(8) %46, ptr noundef @.str.12)
  br label %85

48:                                               ; preds = %2
  %49 = load ptr, ptr %3, align 8, !tbaa !3
  %50 = call noundef nonnull align 8 dereferenceable(8) ptr @_ZStlsISt11char_traitsIcEERSt13basic_ostreamIcT_ES5_PKc(ptr noundef nonnull align 8 dereferenceable(8) %49, ptr noundef @.str.13)
  br label %85

51:                                               ; preds = %2
  %52 = load ptr, ptr %3, align 8, !tbaa !3
  %53 = call noundef nonnull align 8 dereferenceable(8) ptr @_ZStlsISt11char_traitsIcEERSt13basic_ostreamIcT_ES5_PKc(ptr noundef nonnull align 8 dereferenceable(8) %52, ptr noundef @.str.14)
  br label %85

54:                                               ; preds = %2
  %55 = load ptr, ptr %3, align 8, !tbaa !3
  %56 = call noundef nonnull align 8 dereferenceable(8) ptr @_ZStlsISt11char_traitsIcEERSt13basic_ostreamIcT_ES5_PKc(ptr noundef nonnull align 8 dereferenceable(8) %55, ptr noundef @.str.15)
  br label %85

57:                                               ; preds = %2
  %58 = load ptr, ptr %3, align 8, !tbaa !3
  %59 = call noundef nonnull align 8 dereferenceable(8) ptr @_ZStlsISt11char_traitsIcEERSt13basic_ostreamIcT_ES5_PKc(ptr noundef nonnull align 8 dereferenceable(8) %58, ptr noundef @.str.16)
  br label %85

60:                                               ; preds = %2
  %61 = load ptr, ptr %3, align 8, !tbaa !3
  %62 = call noundef nonnull align 8 dereferenceable(8) ptr @_ZStlsISt11char_traitsIcEERSt13basic_ostreamIcT_ES5_PKc(ptr noundef nonnull align 8 dereferenceable(8) %61, ptr noundef @.str.17)
  br label %85

63:                                               ; preds = %2
  %64 = load ptr, ptr %3, align 8, !tbaa !3
  %65 = call noundef nonnull align 8 dereferenceable(8) ptr @_ZStlsISt11char_traitsIcEERSt13basic_ostreamIcT_ES5_PKc(ptr noundef nonnull align 8 dereferenceable(8) %64, ptr noundef @.str.18)
  br label %85

66:                                               ; preds = %2
  %67 = load ptr, ptr %3, align 8, !tbaa !3
  %68 = call noundef nonnull align 8 dereferenceable(8) ptr @_ZStlsISt11char_traitsIcEERSt13basic_ostreamIcT_ES5_PKc(ptr noundef nonnull align 8 dereferenceable(8) %67, ptr noundef @.str.19)
  br label %85

69:                                               ; preds = %2
  %70 = load ptr, ptr %3, align 8, !tbaa !3
  %71 = call noundef nonnull align 8 dereferenceable(8) ptr @_ZStlsISt11char_traitsIcEERSt13basic_ostreamIcT_ES5_PKc(ptr noundef nonnull align 8 dereferenceable(8) %70, ptr noundef @.str.20)
  br label %85

72:                                               ; preds = %2
  %73 = load ptr, ptr %3, align 8, !tbaa !3
  %74 = call noundef nonnull align 8 dereferenceable(8) ptr @_ZStlsISt11char_traitsIcEERSt13basic_ostreamIcT_ES5_PKc(ptr noundef nonnull align 8 dereferenceable(8) %73, ptr noundef @.str.21)
  br label %85

75:                                               ; preds = %2
  call void @llvm.lifetime.start.p0(i64 1, ptr %5) #3
  call void @_ZN4cvc58internal11FatalStreamC1EPKcS3_i(ptr noundef nonnull align 1 dereferenceable(1) %5, ptr noundef @__PRETTY_FUNCTION__._ZN4cvc58internal6theory7stringslsERSoNS2_9InferStepE, ptr noundef @.str.22, i32 noundef 69)
  %76 = invoke noundef nonnull align 8 dereferenceable(8) ptr @_ZN4cvc58internal11FatalStream6streamEv(ptr noundef nonnull align 1 dereferenceable(1) %5)
          to label %77 unwind label %80

77:                                               ; preds = %75
  %78 = invoke noundef nonnull align 8 dereferenceable(8) ptr @_ZStlsISt11char_traitsIcEERSt13basic_ostreamIcT_ES5_PKc(ptr noundef nonnull align 8 dereferenceable(8) %76, ptr noundef @.str.23)
          to label %79 unwind label %80

79:                                               ; preds = %77
  call void @_ZN4cvc58internal11FatalStreamD1Ev(ptr noundef nonnull align 1 dereferenceable(1) %5) #17
  unreachable

80:                                               ; preds = %77, %75
  %81 = landingpad { ptr, i32 }
          cleanup
  %82 = extractvalue { ptr, i32 } %81, 0
  store ptr %82, ptr %6, align 8
  %83 = extractvalue { ptr, i32 } %81, 1
  store i32 %83, ptr %7, align 4
  call void @_ZN4cvc58internal11FatalStreamD1Ev(ptr noundef nonnull align 1 dereferenceable(1) %5) #17
  unreachable

84:                                               ; No predecessors!
  call void @llvm.lifetime.end.p0(i64 1, ptr %5) #3
  br label %87

85:                                               ; preds = %72, %69, %66, %63, %60, %57, %54, %51, %48, %45, %42, %39, %36, %33, %30, %27, %24, %21, %18, %15, %12, %9
  %86 = load ptr, ptr %3, align 8, !tbaa !3
  ret ptr %86

87:                                               ; preds = %84
  %88 = load ptr, ptr %6, align 8
  %89 = load i32, ptr %7, align 4
  %90 = insertvalue { ptr, i32 } poison, ptr %88, 0
  %91 = insertvalue { ptr, i32 } %90, i32 %89, 1
  resume { ptr, i32 } %91
}